target datalayout = "e-m:e-p270:32:32-p271:32:32-p272:64:64-i64:64-i128:128-f80:128-n8:16:32:64-S128"
target triple = "x86_64-pc-linux-gnu"

@.str.15 = private unnamed_addr constant [9 x i8] c"filename\00", align 1
@.str.24 = private unnamed_addr constant [7 x i8] c"status\00", align 1
@.str.25 = private unnamed_addr constant [15 x i8] c"all-statistics\00", align 1
@.str.26 = private unnamed_addr constant [15 x i8] c"error-behavior\00", align 1
@.str.27 = private unnamed_addr constant [5 x i8] c"name\00", align 1
@.str.28 = private unnamed_addr constant [8 x i8] c"version\00", align 1
@.str.29 = private unnamed_addr constant [8 x i8] c"authors\00", align 1
@.str.30 = private unnamed_addr constant [5 x i8] c"time\00", align 1
@.str.31 = private unnamed_addr constant [15 x i8] c"reason-unknown\00", align 1
@.str.32 = private unnamed_addr constant [23 x i8] c"assertion-stack-levels\00", align 1
@.str.33 = private unnamed_addr constant [12 x i8] c"all-options\00", align 1

; Function Attrs: inlinehint mustprogress nounwind uwtable
define linkonce_odr noundef zeroext i1 @_ZSteqIcSt11char_traitsIcESaIcEEbRKNSt7__cxx1112basic_stringIT_T0_T1_EEPKS5_(ptr noundef nonnull align 8 dereferenceable(32) %0, ptr noundef %1) #9 comdat {
  %3 = alloca ptr, align 8
  %4 = alloca ptr, align 8
  store ptr %0, ptr %3, align 8, !tbaa !177
  store ptr %1, ptr %4, align 8, !tbaa !184
  %5 = load ptr, ptr %3, align 8, !tbaa !177
  %6 = load ptr, ptr %4, align 8, !tbaa !184
  %7 = call noundef i32 @_ZNKSt7__cxx1112basic_stringIcSt11char_traitsIcESaIcEE7compareEPKc(ptr noundef nonnull align 8 dereferenceable(32) %5, ptr noundef %6) #3
  %8 = icmp eq i32 %7, 0
  ret i1 %8
}

; Function Attrs: mustprogress uwtable
define noundef zeroext i1 @_ZNK4cvc58internal12SolverEngine18isValidGetInfoFlagERKNSt7__cxx1112basic_stringIcSt11char_traitsIcESaIcEEE(ptr noundef nonnull align 8 dereferenceable(296) %0, ptr noundef nonnull align 8 dereferenceable(32) %1) #6 align 2 {
  %3 = alloca i1, align 1
  %4 = alloca ptr, align 8
  %5 = alloca ptr, align 8
  store ptr %0, ptr %4, align 8, !tbaa !16
  store ptr %1, ptr %5, align 8, !tbaa !177
  %6 = load ptr, ptr %5, align 8, !tbaa !177
  %7 = call noundef zeroext i1 @_ZSteqIcSt11char_traitsIcESaIcEEbRKNSt7__cxx1112basic_stringIT_T0_T1_EEPKS5_(ptr noundef nonnull align 8 dereferenceable(32) %6, ptr noundef @.str.25)
  br i1 %7, label %38, label %8

8:                                                ; preds = %2
  %9 = load ptr, ptr %5, align 8, !tbaa !177
  %10 = call noundef zeroext i1 @_ZSteqIcSt11char_traitsIcESaIcEEbRKNSt7__cxx1112basic_stringIT_T0_T1_EEPKS5_(ptr noundef nonnull align 8 dereferenceable(32) %9, ptr noundef @.str.26)
  br i1 %10, label %38, label %11

11:                                               ; preds = %8
  %12 = load ptr, ptr %5, align 8, !tbaa !177
  %13 = call noundef zeroext i1 @_ZSteqIcSt11char_traitsIcESaIcEEbRKNSt7__cxx1112basic_stringIT_T0_T1_EEPKS5_(ptr noundef nonnull align 8 dereferenceable(32) %12, ptr noundef @.str.15)
  br i1 %13, label %38, label %14

14:                                               ; preds = %11
  %15 = load ptr, ptr %5, align 8, !tbaa !177
  %16 = call noundef zeroext i1 @_ZSteqIcSt11char_traitsIcESaIcEEbRKNSt7__cxx1112basic_stringIT_T0_T1_EEPKS5_(ptr noundef nonnull align 8 dereferenceable(32) %15, ptr noundef @.str.27)
  br i1 %16, label %38, label %17

17:                                               ; preds = %14
  %18 = load ptr, ptr %5, align 8, !tbaa !177
  %19 = call noundef zeroext i1 @_ZSteqIcSt11char_traitsIcESaIcEEbRKNSt7__cxx1112basic_stringIT_T0_T1_EEPKS5_(ptr noundef nonnull align 8 dereferenceable(32) %18, ptr noundef @.str.28)
  br i1 %19, label %38, label %20

20:                                               ; preds = %17
  %21 = load ptr, ptr %5, align 8, !tbaa !177
  %22 = call noundef zeroext i1 @_ZSteqIcSt11char_traitsIcESaIcEEbRKNSt7__cxx1112basic_stringIT_T0_T1_EEPKS5_(ptr noundef nonnull align 8 dereferenceable(32) %21, ptr noundef @.str.29)
  br i1 %22, label %38, label %23

23:                                               ; preds = %20
  %24 = load ptr, ptr %5, align 8, !tbaa !177
  %25 = call noundef zeroext i1 @_ZSteqIcSt11char_traitsIcESaIcEEbRKNSt7__cxx1112basic_stringIT_T0_T1_EEPKS5_(ptr noundef nonnull align 8 dereferenceable(32) %24, ptr noundef @.str.24)
  br i1 %25, label %38, label %26

26:                                               ; preds = %23
  %27 = load ptr, ptr %5, align 8, !tbaa !177
  %28 = call noundef zeroext i1 @_ZSteqIcSt11char_traitsIcESaIcEEbRKNSt7__cxx1112basic_stringIT_T0_T1_EEPKS5_(ptr noundef nonnull align 8 dereferenceable(32) %27, ptr noundef @.str.30)
  br i1 %28, label %38, label %29

29:                                               ; preds = %26
  %30 = load ptr, ptr %5, align 8, !tbaa !177
  %31 = call noundef zeroext i1 @_ZSteqIcSt11char_traitsIcESaIcEEbRKNSt7__cxx1112basic_stringIT_T0_T1_EEPKS5_(ptr noundef nonnull align 8 dereferenceable(32) %30, ptr noundef @.str.31)
  br i1 %31, label %38, label %32

32:                                               ; preds = %29
  %33 = load ptr, ptr %5, align 8, !tbaa !177
  %34 = call noundef zeroext i1 @_ZSteqIcSt11char_traitsIcESaIcEEbRKNSt7__cxx1112basic_stringIT_T0_T1_EEPKS5_(ptr noundef nonnull align 8 dereferenceable(32) %33, ptr noundef @.str.32)
  br i1 %34, label %38, label %35

35:                                               ; preds = %32
  %36 = load ptr, ptr %5, align 8, !tbaa !177
  %37 = call noundef zeroext i1 @_ZSteqIcSt11char_traitsIcESaIcEEbRKNSt7__cxx1112basic_stringIT_T0_T1_EEPKS5_(ptr noundef nonnull align 8 dereferenceable(32) %36, ptr noundef @.str.33)
  br i1 %37, label %38, label %39

38:                                               ; preds = %35, %32, %29, %26, %23, %20, %17, %14, %11, %8, %2
  store i1 true, ptr %3, align 1
  br label %40

39:                                               ; preds = %35
  store i1 false, ptr %3, align 1
  br label %40

40:                                               ; preds = %39, %38
  %41 = load i1, ptr %3, align 1
  ret i1 %41
}